; Function Attrs: nounwind uwtable
define range(i32 0, 2) i32 @Res_WinMarkPaths_rec(ptr noundef readonly %0, ptr noundef %1, i32 noundef %2) local_unnamed_addr #2 {
  %.val2.i = load ptr, ptr %0, align 8
  %4 = getelementptr i8, ptr %0, i64 16
  %.val3.i = load i32, ptr %4, align 8
  %5 = getelementptr inbounds nuw i8, ptr %.val2.i, i64 224
  %6 = add nsw i32 %.val3.i, 1
  tail call fastcc void @Vec_IntFillExtra(ptr noundef nonnull %5, i32 noundef %6)
  %7 = getelementptr i8, ptr %.val2.i, i64 232
  %.val.i.i.i = load ptr, ptr %7, align 8
  %8 = sext i32 %.val3.i to i64
  %9 = getelementptr inbounds i32, ptr %.val.i.i.i, i64 %8
  %10 = load i32, ptr %9, align 4
  %.val.i = load ptr, ptr %0, align 8
  %11 = getelementptr inbounds nuw i8, ptr %.val.i, i64 216
  %12 = load i32, ptr %11, align 8
  %.not = icmp eq i32 %10, %12
  br i1 %.not, label %.critedge.thread, label %13

13:                                               ; preds = %3
  %.val3.i34 = load i32, ptr %4, align 8
  %14 = getelementptr inbounds nuw i8, ptr %.val.i, i64 224
  %15 = add nsw i32 %.val3.i34, 1
  tail call fastcc void @Vec_IntFillExtra(ptr noundef nonnull %14, i32 noundef %15)
  %16 = getelementptr i8, ptr %.val.i, i64 232
  %.val.i.i.i35 = load ptr, ptr %16, align 8
  %17 = sext i32 %.val3.i34 to i64
  %18 = getelementptr inbounds i32, ptr %.val.i.i.i35, i64 %17
  %19 = load i32, ptr %18, align 4
  %.val.i36 = load ptr, ptr %0, align 8
  %20 = getelementptr inbounds nuw i8, ptr %.val.i36, i64 216
  %21 = load i32, ptr %20, align 8
  %22 = add nsw i32 %21, -1
  %.not39 = icmp eq i32 %19, %22
  br i1 %.not39, label %.critedge.thread, label %23

23:                                               ; preds = %13
  %.val32 = load i32, ptr %4, align 8
  %24 = getelementptr inbounds nuw i8, ptr %.val.i36, i64 224
  %25 = add nsw i32 %.val32, 1
  tail call fastcc void @Vec_IntFillExtra(ptr noundef nonnull %24, i32 noundef %25)
  %26 = getelementptr i8, ptr %.val.i36, i64 232
  %.val.i.i.i37 = load ptr, ptr %26, align 8
  %27 = sext i32 %.val32 to i64
  %28 = getelementptr inbounds i32, ptr %.val.i.i.i37, i64 %27
  store i32 %22, ptr %28, align 4
  %29 = icmp eq ptr %0, %1
  br i1 %29, label %.critedge.thread, label %30

30:                                               ; preds = %23
  %31 = getelementptr inbounds nuw i8, ptr %0, i64 20
  %32 = load i32, ptr %31, align 4
  %33 = lshr i32 %32, 12
  %.not25 = icmp sgt i32 %33, %2
  br i1 %.not25, label %.preheader, label %.critedge.thread

.preheader:                                       ; preds = %30
  %34 = getelementptr i8, ptr %0, i64 28
  %.val2840 = load i32, ptr %34, align 4
  %35 = icmp sgt i32 %.val2840, 0
  br i1 %35, label %.lr.ph, label %.critedge.thread

.lr.ph:                                           ; preds = %.preheader
  %36 = getelementptr i8, ptr %0, i64 32
  br label %37

37:                                               ; preds = %.lr.ph, %37
  %indvars.iv = phi i64 [ 0, %.lr.ph ], [ %indvars.iv.next, %37 ]
  %.042 = phi i32 [ 0, %.lr.ph ], [ %46, %37 ]
  %.val29 = load ptr, ptr %0, align 8
  %.val30 = load ptr, ptr %36, align 8
  %38 = getelementptr i8, ptr %.val29, i64 32
  %.val29.val = load ptr, ptr %38, align 8
  %39 = getelementptr i8, ptr %.val29.val, i64 8
  %.val29.val.val = load ptr, ptr %39, align 8
  %40 = getelementptr inbounds nuw i32, ptr %.val30, i64 %indvars.iv
  %41 = load i32, ptr %40, align 4
  %42 = sext i32 %41 to i64
  %43 = getelementptr inbounds ptr, ptr %.val29.val.val, i64 %42
  %44 = load ptr, ptr %43, align 8
  %45 = tail call i32 @Res_WinMarkPaths_rec(ptr noundef %44, ptr noundef %1, i32 noundef %2)
  %46 = or i32 %45, %.042
  %indvars.iv.next = add nuw nsw i64 %indvars.iv, 1
  %.val28 = load i32, ptr %34, align 4
  %47 = sext i32 %.val28 to i64
  %48 = icmp slt i64 %indvars.iv.next, %47
  br i1 %48, label %37, label %.critedge, !llvm.loop !19

.critedge:                                        ; preds = %37
  %.not26 = icmp eq i32 %46, 0
  br i1 %.not26, label %.critedge.thread, label %49

49:                                               ; preds = %.critedge
  %.val = load ptr, ptr %0, align 8
  %.val27 = load i32, ptr %4, align 8
  %50 = getelementptr inbounds nuw i8, ptr %.val, i64 216
  %51 = load i32, ptr %50, align 8
  %52 = getelementptr inbounds nuw i8, ptr %.val, i64 224
  %53 = add nsw i32 %.val27, 1
  tail call fastcc void @Vec_IntFillExtra(ptr noundef nonnull %52, i32 noundef %53)
  %54 = getelementptr i8, ptr %.val, i64 232
  %.val.i.i.i38 = load ptr, ptr %54, align 8
  %55 = sext i32 %.val27 to i64
  %56 = getelementptr inbounds i32, ptr %.val.i.i.i38, i64 %55
  store i32 %51, ptr %56, align 4
  br label %.critedge.thread

.critedge.thread:                                 ; preds = %.preheader, %.critedge, %49, %23, %30, %13, %3
  %.020 = phi i32 [ 1, %3 ], [ 0, %13 ], [ 0, %30 ], [ 0, %23 ], [ %46, %49 ], [ 0, %.critedge ], [ 0, %.preheader ]
  ret i32 %.020
}